target datalayout = "e-m:e-p270:32:32-p271:32:32-p272:64:64-i64:64-i128:128-f80:128-n8:16:32:64-S128"
target triple = "x86_64-pc-linux-gnu"

@_ZTIN19OpenColorIO_v2_5dev9ExceptionE = external constant ptr
@.str.1 = private unnamed_addr constant [4 x i8] c"CDL\00", align 1
@.str.2 = private unnamed_addr constant [9 x i8] c"Exponent\00", align 1
@.str.3 = private unnamed_addr constant [17 x i8] c"ExposureContrast\00", align 1
@.str.4 = private unnamed_addr constant [14 x i8] c"FixedFunction\00", align 1
@.str.5 = private unnamed_addr constant [6 x i8] c"Gamma\00", align 1
@.str.6 = private unnamed_addr constant [15 x i8] c"GradingPrimary\00", align 1
@.str.7 = private unnamed_addr constant [16 x i8] c"GradingRGBCurve\00", align 1
@.str.8 = private unnamed_addr constant [12 x i8] c"GradingTone\00", align 1
@.str.9 = private unnamed_addr constant [4 x i8] c"Log\00", align 1
@.str.10 = private unnamed_addr constant [6 x i8] c"LUT1D\00", align 1
@.str.11 = private unnamed_addr constant [6 x i8] c"LUT3D\00", align 1
@.str.12 = private unnamed_addr constant [7 x i8] c"Matrix\00", align 1
@.str.13 = private unnamed_addr constant [6 x i8] c"Range\00", align 1
@.str.14 = private unnamed_addr constant [20 x i8] c"Unexpected op type.\00", align 1

; Function Attrs: mustprogress uwtable
define hidden noundef ptr @_ZN19OpenColorIO_v2_5dev11GetTypeNameENS_6OpData4TypeE(i32 noundef %0) #5 personality ptr @__gxx_personality_v0 {
  %2 = alloca ptr, align 8
  %3 = alloca i32, align 4
  %4 = alloca ptr, align 8
  %5 = alloca i32, align 4
  store i32 %0, ptr %3, align 4, !tbaa !30
  %6 = load i32, ptr %3, align 4, !tbaa !30
  switch i32 %6, label %21 [
    i32 0, label %7
    i32 1, label %8
    i32 2, label %9
    i32 3, label %10
    i32 4, label %11
    i32 5, label %12
    i32 6, label %13
    i32 7, label %14
    i32 8, label %15
    i32 9, label %16
    i32 10, label %17
    i32 11, label %18
    i32 12, label %19
    i32 13, label %20
    i32 14, label %20
  ]

7:                                                ; preds = %1
  store ptr @.str.1, ptr %2, align 8
  br label %28

8:                                                ; preds = %1
  store ptr @.str.2, ptr %2, align 8
  br label %28

9:                                                ; preds = %1
  store ptr @.str.3, ptr %2, align 8
  br label %28

10:                                               ; preds = %1
  store ptr @.str.4, ptr %2, align 8
  br label %28

11:                                               ; preds = %1
  store ptr @.str.5, ptr %2, align 8
  br label %28

12:                                               ; preds = %1
  store ptr @.str.6, ptr %2, align 8
  br label %28

13:                                               ; preds = %1
  store ptr @.str.7, ptr %2, align 8
  br label %28

14:                                               ; preds = %1
  store ptr @.str.8, ptr %2, align 8
  br label %28

15:                                               ; preds = %1
  store ptr @.str.9, ptr %2, align 8
  br label %28

16:                                               ; preds = %1
  store ptr @.str.10, ptr %2, align 8
  br label %28

17:                                               ; preds = %1
  store ptr @.str.11, ptr %2, align 8
  br label %28

18:                                               ; preds = %1
  store ptr @.str.12, ptr %2, align 8
  br label %28

19:                                               ; preds = %1
  store ptr @.str.13, ptr %2, align 8
  br label %28

20:                                               ; preds = %1, %1
  br label %21

21:                                               ; preds = %1, %20
  %22 = call ptr @__cxa_allocate_exception(i64 16) #3
  invoke void @_ZN19OpenColorIO_v2_5dev9ExceptionC1EPKc(ptr noundef nonnull align 8 dereferenceable(16) %22, ptr noundef @.str.14)
          to label %23 unwind label %24

23:                                               ; preds = %21
  call void @__cxa_throw(ptr %22, ptr @_ZTIN19OpenColorIO_v2_5dev9ExceptionE, ptr @_ZN19OpenColorIO_v2_5dev9ExceptionD1Ev) #22
  unreachable

24:                                               ; preds = %21
  %25 = landingpad { ptr, i32 }
          cleanup
  %26 = extractvalue { ptr, i32 } %25, 0
  store ptr %26, ptr %4, align 8
  %27 = extractvalue { ptr, i32 } %25, 1
  store i32 %27, ptr %5, align 4
  call void @__cxa_free_exception(ptr %22) #3
  br label %30

28:                                               ; preds = %19, %18, %17, %16, %15, %14, %13, %12, %11, %10, %9, %8, %7
  %29 = load ptr, ptr %2, align 8
  ret ptr %29

30:                                               ; preds = %24
  %31 = load ptr, ptr %4, align 8
  %32 = load i32, ptr %5, align 4
  %33 = insertvalue { ptr, i32 } poison, ptr %31, 0
  %34 = insertvalue { ptr, i32 } %33, i32 %32, 1
  resume { ptr, i32 } %34
}