; Function Attrs: mustprogress uwtable
define hidden noundef nonnull ptr @_ZN19OpenColorIO_v2_5dev11GetTypeNameENS_6OpData4TypeE(i32 noundef %0) local_unnamed_addr #6 personality ptr @__gxx_personality_v0 {
  %2 = icmp ult i32 %0, 13
  br i1 %2, label %switch.lookup, label %3

3:                                                ; preds = %1
  %4 = tail call ptr @__cxa_allocate_exception(i64 16) #26
  invoke void @_ZN19OpenColorIO_v2_5dev9ExceptionC1EPKc(ptr noundef nonnull align 8 dereferenceable(16) %4, ptr noundef nonnull @.str.14)
          to label %5 unwind label %6

5:                                                ; preds = %3
  tail call void @__cxa_throw(ptr nonnull %4, ptr nonnull @_ZTIN19OpenColorIO_v2_5dev9ExceptionE, ptr nonnull @_ZN19OpenColorIO_v2_5dev9ExceptionD1Ev) #27
  unreachable

6:                                                ; preds = %3
  %7 = landingpad { ptr, i32 }
          cleanup
  tail call void @__cxa_free_exception(ptr nonnull %4) #26
  resume { ptr, i32 } %7

switch.lookup:                                    ; preds = %1
  %8 = zext nneg i32 %0 to i64
  %switch.gep = getelementptr inbounds nuw [13 x ptr], ptr @switch.table._ZN19OpenColorIO_v2_5dev11GetTypeNameENS_6OpData4TypeE, i64 0, i64 %8
  %switch.load = load ptr, ptr %switch.gep, align 8
  ret ptr %switch.load
}